target datalayout = "e-m:e-p270:32:32-p271:32:32-p272:64:64-i64:64-i128:128-f80:128-n8:16:32:64-S128"
target triple = "x86_64-pc-linux-gnu"

%struct.ws_option = type { i16, i16 }

; Function Attrs: null_pointer_is_valid sspstrong uwtable
define internal zeroext i1 @pcapng_write_string_option(ptr noundef %0, i16 noundef zeroext %1, ptr noundef %2, ptr noundef %3, ptr noundef %4) #0 {
  %6 = alloca i1, align 1
  %7 = alloca ptr, align 8
  %8 = alloca i16, align 2
  %9 = alloca ptr, align 8
  %10 = alloca ptr, align 8
  %11 = alloca ptr, align 8
  %12 = alloca i64, align 8
  %13 = alloca %struct.ws_option, align 2
  %14 = alloca i32, align 4
  %15 = alloca i32, align 4
  store ptr %0, ptr %7, align 8
  store i16 %1, ptr %8, align 2
  store ptr %2, ptr %9, align 8
  store ptr %3, ptr %10, align 8
  store ptr %4, ptr %11, align 8
  call void @llvm.lifetime.start.p0(i64 8, ptr %12) #12
  call void @llvm.lifetime.start.p0(i64 4, ptr %13) #12
  call void @llvm.lifetime.start.p0(i64 4, ptr %14) #12
  store i32 0, ptr %14, align 4
  %16 = load ptr, ptr %9, align 8
  %17 = icmp eq ptr %16, null
  br i1 %17, label %18, label %19

18:                                               ; preds = %5
  store i1 true, ptr %6, align 1
  store i32 1, ptr %15, align 4
  br label %64

19:                                               ; preds = %5
  %20 = load ptr, ptr %9, align 8
  %21 = call i64 @strlen(ptr noundef %20) #16
  store i64 %21, ptr %12, align 8
  %22 = load i64, ptr %12, align 8
  %23 = icmp ugt i64 %22, 0
  br i1 %23, label %24, label %63

24:                                               ; preds = %19
  %25 = load i64, ptr %12, align 8
  %26 = icmp ult i64 %25, 65535
  br i1 %26, label %27, label %63

27:                                               ; preds = %24
  %28 = load i16, ptr %8, align 2
  %29 = getelementptr inbounds nuw %struct.ws_option, ptr %13, i32 0, i32 0
  store i16 %28, ptr %29, align 2
  %30 = load i64, ptr %12, align 8
  %31 = trunc i64 %30 to i16
  %32 = getelementptr inbounds nuw %struct.ws_option, ptr %13, i32 0, i32 1
  store i16 %31, ptr %32, align 2
  %33 = load ptr, ptr %7, align 8
  %34 = load ptr, ptr %10, align 8
  %35 = load ptr, ptr %11, align 8
  %36 = call zeroext i1 @write_to_file(ptr noundef %33, ptr noundef %13, i64 noundef 4, ptr noundef %34, ptr noundef %35)
  br i1 %36, label %38, label %37

37:                                               ; preds = %27
  store i1 false, ptr %6, align 1
  store i32 1, ptr %15, align 4
  br label %64

38:                                               ; preds = %27
  %39 = load ptr, ptr %7, align 8
  %40 = load ptr, ptr %9, align 8
  %41 = load i64, ptr %12, align 8
  %42 = trunc i64 %41 to i32
  %43 = sext i32 %42 to i64
  %44 = load ptr, ptr %10, align 8
  %45 = load ptr, ptr %11, align 8
  %46 = call zeroext i1 @write_to_file(ptr noundef %39, ptr noundef %40, i64 noundef %43, ptr noundef %44, ptr noundef %45)
  br i1 %46, label %48, label %47

47:                                               ; preds = %38
  store i1 false, ptr %6, align 1
  store i32 1, ptr %15, align 4
  br label %64

48:                                               ; preds = %38
  %49 = load i64, ptr %12, align 8
  %50 = urem i64 %49, 4
  %51 = icmp ne i64 %50, 0
  br i1 %51, label %52, label %62

52:                                               ; preds = %48
  %53 = load ptr, ptr %7, align 8
  %54 = load i64, ptr %12, align 8
  %55 = urem i64 %54, 4
  %56 = sub i64 4, %55
  %57 = load ptr, ptr %10, align 8
  %58 = load ptr, ptr %11, align 8
  %59 = call zeroext i1 @write_to_file(ptr noundef %53, ptr noundef %14, i64 noundef %56, ptr noundef %57, ptr noundef %58)
  br i1 %59, label %61, label %60

60:                                               ; preds = %52
  store i1 false, ptr %6, align 1
  store i32 1, ptr %15, align 4
  br label %64

61:                                               ; preds = %52
  br label %62

62:                                               ; preds = %61, %48
  br label %63

63:                                               ; preds = %62, %24, %19
  store i1 true, ptr %6, align 1
  store i32 1, ptr %15, align 4
  br label %64

64:                                               ; preds = %63, %60, %47, %37, %18
  call void @llvm.lifetime.end.p0(i64 4, ptr %14) #12
  call void @llvm.lifetime.end.p0(i64 4, ptr %13) #12
  call void @llvm.lifetime.end.p0(i64 8, ptr %12) #12
  %65 = load i1, ptr %6, align 1
  ret i1 %65
}