; Function Attrs: null_pointer_is_valid sspstrong uwtable
define internal fastcc noundef zeroext i1 @pcapng_write_string_option(ptr noundef readonly captures(none) %0, i16 noundef zeroext range(i16 1, 16) %1, ptr noundef %2, ptr noundef captures(none) %3, ptr noundef writeonly captures(none) %4) unnamed_addr #0 {
  %6 = alloca %struct.ws_option, align 2
  %7 = alloca i32, align 4
  call void @llvm.lifetime.start.p0(i64 4, ptr nonnull %6) #14
  call void @llvm.lifetime.start.p0(i64 4, ptr nonnull %7) #14
  store i32 0, ptr %7, align 4
  %8 = icmp eq ptr %2, null
  br i1 %8, label %24, label %9

9:                                                ; preds = %5
  %10 = tail call i64 @strlen(ptr noundef nonnull dereferenceable(1) %2) #15
  %11 = add i64 %10, -1
  %or.cond = icmp ult i64 %11, 65534
  br i1 %or.cond, label %12, label %23

12:                                               ; preds = %9
  store i16 %1, ptr %6, align 2
  %13 = trunc nuw i64 %10 to i16
  %14 = getelementptr inbounds nuw i8, ptr %6, i64 2
  store i16 %13, ptr %14, align 2
  %15 = call fastcc zeroext i1 @write_to_file(ptr noundef %0, ptr noundef nonnull %6, i64 noundef 4, ptr noundef %3, ptr noundef %4)
  br i1 %15, label %16, label %24

16:                                               ; preds = %12
  %17 = call fastcc zeroext i1 @write_to_file(ptr noundef %0, ptr noundef nonnull %2, i64 noundef %10, ptr noundef %3, ptr noundef %4)
  br i1 %17, label %18, label %24

18:                                               ; preds = %16
  %19 = and i64 %10, 3
  %.not = icmp eq i64 %19, 0
  br i1 %.not, label %23, label %20

20:                                               ; preds = %18
  %21 = sub nuw nsw i64 4, %19
  %22 = call fastcc zeroext i1 @write_to_file(ptr noundef %0, ptr noundef nonnull %7, i64 noundef %21, ptr noundef %3, ptr noundef %4)
  br i1 %22, label %23, label %24

23:                                               ; preds = %18, %20, %9
  br label %24

24:                                               ; preds = %20, %16, %12, %5, %23
  %.0 = phi i1 [ true, %23 ], [ true, %5 ], [ false, %12 ], [ false, %16 ], [ false, %20 ]
  call void @llvm.lifetime.end.p0(i64 4, ptr nonnull %7) #14
  call void @llvm.lifetime.end.p0(i64 4, ptr nonnull %6) #14
  ret i1 %.0
}